; Function Attrs: cold nounwind optsize uwtable
define internal noundef i32 @g2m_decode_end(ptr noundef readonly captures(none) %0) #0 {
  %2 = getelementptr inbounds nuw i8, ptr %0, i64 32
  %3 = load ptr, ptr %2, align 8, !tbaa !4
  %4 = getelementptr inbounds nuw i8, ptr %3, i64 9600
  tail call fastcc void @jpg_free_context(ptr noundef nonnull %4) #11
  %5 = getelementptr inbounds nuw i8, ptr %3, i64 10816
  tail call void @av_freep(ptr noundef nonnull %5) #12
  %6 = getelementptr inbounds nuw i8, ptr %3, i64 10808
  store ptr null, ptr %6, align 8, !tbaa !66
  %7 = getelementptr inbounds nuw i8, ptr %3, i64 10848
  tail call void @av_freep(ptr noundef nonnull %7) #12
  %8 = getelementptr inbounds nuw i8, ptr %3, i64 10856
  tail call void @av_freep(ptr noundef nonnull %8) #12
  %9 = getelementptr inbounds nuw i8, ptr %3, i64 10792
  tail call void @av_freep(ptr noundef nonnull %9) #12
  %10 = getelementptr inbounds nuw i8, ptr %3, i64 10800
  tail call void @av_freep(ptr noundef nonnull %10) #12
  %11 = getelementptr inbounds nuw i8, ptr %3, i64 10864
  tail call void @av_freep(ptr noundef nonnull %11) #12
  %12 = getelementptr inbounds nuw i8, ptr %3, i64 10776
  tail call void @av_freep(ptr noundef nonnull %12) #12
  %13 = getelementptr inbounds nuw i8, ptr %3, i64 10788
  store i32 0, ptr %13, align 4, !tbaa !100
  ret i32 0
}